; Function Attrs: mustprogress nofree norecurse nosync nounwind null_pointer_is_valid sspstrong willreturn memory(argmem: read) uwtable
define internal range(i32 0, 65536) i32 @address_combination_hash(ptr noundef readonly captures(none) %0) #2 {
  %2 = load i8, ptr %0, align 1
  %3 = zext i8 %2 to i32
  %4 = shl nuw nsw i32 %3, 8
  %5 = getelementptr inbounds nuw i8, ptr %0, i64 1
  %6 = load i8, ptr %5, align 1
  %7 = zext i8 %6 to i32
  %8 = or disjoint i32 %4, %7
  ret i32 %8
}